target datalayout = "e-m:e-p270:32:32-p271:32:32-p272:64:64-i64:64-i128:128-f80:128-n8:16:32:64-S128"
target triple = "x86_64-pc-linux-gnu"

%struct.nameData = type { [64 x i8] }
%struct.HeapTupleData = type { i32, %struct.ItemPointerData, i32, ptr }
%struct.ItemPointerData = type { %struct.BlockIdData, i16 }
%struct.BlockIdData = type { i16, i16 }
%struct.FormData_pg_proc = type { i32, %struct.nameData, i32, i32, i32, float, float, i32, i32, i8, i8, i8, i8, i8, i8, i8, i16, i16, i32, %struct.oidvector }
%struct.oidvector = type { i32, i32, i32, i32, i32, i32, [0 x i32] }
%struct.HeapTupleHeaderData = type { %union.anon, %struct.ItemPointerData, i16, i16, i8, [0 x i8] }
%union.anon = type { %struct.HeapTupleFields }
%struct.HeapTupleFields = type { i32, i32, %union.anon.0 }
%union.anon.0 = type { i32 }
%struct.SupportRequestRows = type { i32, ptr, i32, ptr, double }

@.str.1 = private unnamed_addr constant [10 x i8] c"plancat.c\00", align 1
@.str.12 = private unnamed_addr constant [36 x i8] c"cache lookup failed for function %u\00", align 1
@__func__.get_function_rows = private unnamed_addr constant [18 x i8] c"get_function_rows\00", align 1

; Function Attrs: inlinehint nounwind uwtable
define internal ptr @DatumGetPointer(i64 noundef %0) #4 {
  %2 = alloca i64, align 8
  store i64 %0, ptr %2, align 8
  %3 = load i64, ptr %2, align 8
  %4 = inttoptr i64 %3 to ptr
  ret ptr %4
}

; Function Attrs: inlinehint nounwind uwtable
define internal i64 @PointerGetDatum(ptr noundef %0) #4 {
  %2 = alloca ptr, align 8
  store ptr %0, ptr %2, align 8
  %3 = load ptr, ptr %2, align 8
  %4 = ptrtoint ptr %3 to i64
  ret i64 %4
}

; Function Attrs: inlinehint nounwind uwtable
define internal ptr @GETSTRUCT(ptr noundef %0) #4 {
  %2 = alloca ptr, align 8
  store ptr %0, ptr %2, align 8
  %3 = load ptr, ptr %2, align 8
  %4 = getelementptr inbounds nuw %struct.HeapTupleData, ptr %3, i32 0, i32 3
  %5 = load ptr, ptr %4, align 8
  %6 = load ptr, ptr %2, align 8
  %7 = getelementptr inbounds nuw %struct.HeapTupleData, ptr %6, i32 0, i32 3
  %8 = load ptr, ptr %7, align 8
  %9 = getelementptr inbounds nuw %struct.HeapTupleHeaderData, ptr %8, i32 0, i32 4
  %10 = load i8, ptr %9, align 2
  %11 = zext i8 %10 to i32
  %12 = sext i32 %11 to i64
  %13 = getelementptr inbounds i8, ptr %5, i64 %12
  ret ptr %13
}

; Function Attrs: inlinehint nounwind uwtable
define internal i64 @ObjectIdGetDatum(i32 noundef %0) #4 {
  %2 = alloca i32, align 4
  store i32 %0, ptr %2, align 4
  %3 = load i32, ptr %2, align 4
  %4 = zext i32 %3 to i64
  ret i64 %4
}

; Function Attrs: nounwind uwtable
define dso_local double @get_function_rows(ptr noundef %0, i32 noundef %1, ptr noundef %2) #0 {
  %4 = alloca double, align 8
  %5 = alloca ptr, align 8
  %6 = alloca i32, align 4
  %7 = alloca ptr, align 8
  %8 = alloca ptr, align 8
  %9 = alloca ptr, align 8
  %10 = alloca double, align 8
  %11 = alloca %struct.SupportRequestRows, align 8
  %12 = alloca ptr, align 8
  %13 = alloca i32, align 4
  store ptr %0, ptr %5, align 8
  store i32 %1, ptr %6, align 4
  store ptr %2, ptr %7, align 8
  call void @llvm.lifetime.start.p0(i64 8, ptr %8) #10
  call void @llvm.lifetime.start.p0(i64 8, ptr %9) #10
  call void @llvm.lifetime.start.p0(i64 8, ptr %10) #10
  %14 = load i32, ptr %6, align 4
  %15 = call i64 @ObjectIdGetDatum(i32 noundef %14)
  %16 = call ptr @SearchSysCache1(i32 noundef 47, i64 noundef %15)
  store ptr %16, ptr %8, align 8
  %17 = load ptr, ptr %8, align 8
  %18 = icmp ne ptr %17, null
  br i1 %18, label %31, label %19

19:                                               ; preds = %3
  br label %20

20:                                               ; preds = %19
  br i1 true, label %21, label %23

21:                                               ; preds = %20
  %22 = call zeroext i1 @errstart_cold(i32 noundef 21, ptr noundef null) #11
  br i1 %22, label %25, label %28

23:                                               ; preds = %20
  %24 = call zeroext i1 @errstart(i32 noundef 21, ptr noundef null)
  br i1 %24, label %25, label %28

25:                                               ; preds = %23, %21
  %26 = load i32, ptr %6, align 4
  %27 = call i32 (ptr, ...) @errmsg_internal(ptr noundef @.str.12, i32 noundef %26)
  call void @errfinish(ptr noundef @.str.1, i32 noundef 2178, ptr noundef @__func__.get_function_rows)
  br label %28

28:                                               ; preds = %25, %23, %21
  unreachable

29:                                               ; No predecessors!
  br label %30

30:                                               ; preds = %29
  br label %31

31:                                               ; preds = %30, %3
  %32 = load ptr, ptr %8, align 8
  %33 = call ptr @GETSTRUCT(ptr noundef %32)
  store ptr %33, ptr %9, align 8
  %34 = load ptr, ptr %9, align 8
  %35 = getelementptr inbounds nuw %struct.FormData_pg_proc, ptr %34, i32 0, i32 8
  %36 = load i32, ptr %35, align 4
  %37 = icmp ne i32 %36, 0
  br i1 %37, label %38, label %63

38:                                               ; preds = %31
  call void @llvm.lifetime.start.p0(i64 40, ptr %11) #10
  call void @llvm.lifetime.start.p0(i64 8, ptr %12) #10
  %39 = getelementptr inbounds nuw %struct.SupportRequestRows, ptr %11, i32 0, i32 0
  store i32 459, ptr %39, align 8
  %40 = load ptr, ptr %5, align 8
  %41 = getelementptr inbounds nuw %struct.SupportRequestRows, ptr %11, i32 0, i32 1
  store ptr %40, ptr %41, align 8
  %42 = load i32, ptr %6, align 4
  %43 = getelementptr inbounds nuw %struct.SupportRequestRows, ptr %11, i32 0, i32 2
  store i32 %42, ptr %43, align 8
  %44 = load ptr, ptr %7, align 8
  %45 = getelementptr inbounds nuw %struct.SupportRequestRows, ptr %11, i32 0, i32 3
  store ptr %44, ptr %45, align 8
  %46 = getelementptr inbounds nuw %struct.SupportRequestRows, ptr %11, i32 0, i32 4
  store double 0.000000e+00, ptr %46, align 8
  %47 = load ptr, ptr %9, align 8
  %48 = getelementptr inbounds nuw %struct.FormData_pg_proc, ptr %47, i32 0, i32 8
  %49 = load i32, ptr %48, align 4
  %50 = call i64 @PointerGetDatum(ptr noundef %11)
  %51 = call i64 @OidFunctionCall1Coll(i32 noundef %49, i32 noundef 0, i64 noundef %50)
  %52 = call ptr @DatumGetPointer(i64 noundef %51)
  store ptr %52, ptr %12, align 8
  %53 = load ptr, ptr %12, align 8
  %54 = icmp eq ptr %53, %11
  br i1 %54, label %55, label %59

55:                                               ; preds = %38
  %56 = load ptr, ptr %8, align 8
  call void @ReleaseSysCache(ptr noundef %56)
  %57 = getelementptr inbounds nuw %struct.SupportRequestRows, ptr %11, i32 0, i32 4
  %58 = load double, ptr %57, align 8
  store double %58, ptr %4, align 8
  store i32 1, ptr %13, align 4
  br label %60

59:                                               ; preds = %38
  store i32 0, ptr %13, align 4
  br label %60

60:                                               ; preds = %59, %55
  call void @llvm.lifetime.end.p0(i64 8, ptr %12) #10
  call void @llvm.lifetime.end.p0(i64 40, ptr %11) #10
  %61 = load i32, ptr %13, align 4
  switch i32 %61, label %70 [
    i32 0, label %62
  ]

62:                                               ; preds = %60
  br label %63

63:                                               ; preds = %62, %31
  %64 = load ptr, ptr %9, align 8
  %65 = getelementptr inbounds nuw %struct.FormData_pg_proc, ptr %64, i32 0, i32 6
  %66 = load float, ptr %65, align 4
  %67 = fpext float %66 to double
  store double %67, ptr %10, align 8
  %68 = load ptr, ptr %8, align 8
  call void @ReleaseSysCache(ptr noundef %68)
  %69 = load double, ptr %10, align 8
  store double %69, ptr %4, align 8
  store i32 1, ptr %13, align 4
  br label %70

70:                                               ; preds = %63, %60
  call void @llvm.lifetime.end.p0(i64 8, ptr %10) #10
  call void @llvm.lifetime.end.p0(i64 8, ptr %9) #10
  call void @llvm.lifetime.end.p0(i64 8, ptr %8) #10
  %71 = load double, ptr %4, align 8
  ret double %71
}