; Function Attrs: nounwind uwtable
define dso_local double @get_function_rows(ptr noundef %0, i32 noundef %1, ptr noundef %2) local_unnamed_addr #0 {
  %4 = alloca %struct.SupportRequestRows, align 8
  %5 = zext i32 %1 to i64
  %6 = tail call ptr @SearchSysCache1(i32 noundef 47, i64 noundef %5) #10
  %.not = icmp eq ptr %6, null
  br i1 %.not, label %7, label %10

7:                                                ; preds = %3
  %8 = tail call zeroext i1 @errstart_cold(i32 noundef 21, ptr noundef null) #11
  tail call void @llvm.assume(i1 %8)
  %9 = tail call i32 (ptr, ...) @errmsg_internal(ptr noundef nonnull @.str.12, i32 noundef %1) #10
  tail call void @errfinish(ptr noundef nonnull @.str.1, i32 noundef 2178, ptr noundef nonnull @__func__.get_function_rows) #10
  unreachable

10:                                               ; preds = %3
  %11 = getelementptr i8, ptr %6, i64 16
  %.val = load ptr, ptr %11, align 8
  %12 = getelementptr inbounds nuw i8, ptr %.val, i64 22
  %13 = load i8, ptr %12, align 2
  %14 = zext i8 %13 to i64
  %15 = getelementptr inbounds nuw i8, ptr %.val, i64 %14
  %16 = getelementptr inbounds nuw i8, ptr %15, i64 92
  %17 = load i32, ptr %16, align 4
  %.not17 = icmp eq i32 %17, 0
  br i1 %.not17, label %28, label %18

18:                                               ; preds = %10
  call void @llvm.lifetime.start.p0(i64 40, ptr nonnull %4) #10
  store i32 459, ptr %4, align 8
  %19 = getelementptr inbounds nuw i8, ptr %4, i64 8
  store ptr %0, ptr %19, align 8
  %20 = getelementptr inbounds nuw i8, ptr %4, i64 16
  store i32 %1, ptr %20, align 8
  %21 = getelementptr inbounds nuw i8, ptr %4, i64 24
  store ptr %2, ptr %21, align 8
  %22 = getelementptr inbounds nuw i8, ptr %4, i64 32
  store double 0.000000e+00, ptr %22, align 8
  %23 = ptrtoint ptr %4 to i64
  %24 = call i64 @OidFunctionCall1Coll(i32 noundef %17, i32 noundef 0, i64 noundef %23) #10
  %25 = inttoptr i64 %24 to ptr
  %.not18 = icmp eq ptr %4, %25
  br i1 %.not18, label %.thread, label %27

.thread:                                          ; preds = %18
  call void @ReleaseSysCache(ptr noundef nonnull %6) #10
  %26 = load double, ptr %22, align 8
  call void @llvm.lifetime.end.p0(i64 40, ptr nonnull %4) #10
  br label %32

27:                                               ; preds = %18
  call void @llvm.lifetime.end.p0(i64 40, ptr nonnull %4) #10
  br label %28

28:                                               ; preds = %27, %10
  %29 = getelementptr inbounds nuw i8, ptr %15, i64 84
  %30 = load float, ptr %29, align 4
  %31 = fpext float %30 to double
  call void @ReleaseSysCache(ptr noundef nonnull %6) #10
  br label %32

32:                                               ; preds = %.thread, %28
  %.1 = phi double [ %31, %28 ], [ %26, %.thread ]
  ret double %.1
}